target datalayout = "e-m:e-p270:32:32-p271:32:32-p272:64:64-i64:64-i128:128-f80:128-n8:16:32:64-S128"
target triple = "x86_64-pc-linux-gnu"

%struct.UConverter = type { ptr, ptr, ptr, ptr, ptr, ptr, ptr, i32, i8, i8, i8, i8, i8, [7 x i8], i32, i32, i32, i32, i8, i8, i8, i8, i8, i8, i8, i8, [8 x i8], [32 x i8], [2 x i16], [2 x i16], [32 x i16], i32, [19 x i16], [31 x i8], i8, i8, i8, i32 }

; Function Attrs: inlinehint mustprogress nounwind uwtable
define internal noundef signext i8 @_ZL9U_FAILURE10UErrorCode(i32 noundef %0) #2 {
  %2 = alloca i32, align 4
  store i32 %0, ptr %2, align 4, !tbaa !9
  %3 = load i32, ptr %2, align 4, !tbaa !9
  %4 = icmp sgt i32 %3, 0
  %5 = zext i1 %4 to i8
  ret i8 %5
}

; Function Attrs: mustprogress uwtable
define i32 @ucnv_convert_77(ptr noundef %0, ptr noundef %1, ptr noundef %2, i32 noundef %3, ptr noundef %4, i32 noundef %5, ptr noundef %6) #0 {
  %8 = alloca i32, align 4
  %9 = alloca ptr, align 8
  %10 = alloca ptr, align 8
  %11 = alloca ptr, align 8
  %12 = alloca i32, align 4
  %13 = alloca ptr, align 8
  %14 = alloca i32, align 4
  %15 = alloca ptr, align 8
  %16 = alloca %struct.UConverter, align 8
  %17 = alloca %struct.UConverter, align 8
  %18 = alloca ptr, align 8
  %19 = alloca ptr, align 8
  %20 = alloca i32, align 4
  %21 = alloca i32, align 4
  store ptr %0, ptr %9, align 8, !tbaa !3
  store ptr %1, ptr %10, align 8, !tbaa !3
  store ptr %2, ptr %11, align 8, !tbaa !3
  store i32 %3, ptr %12, align 4, !tbaa !15
  store ptr %4, ptr %13, align 8, !tbaa !3
  store i32 %5, ptr %14, align 4, !tbaa !15
  store ptr %6, ptr %15, align 8, !tbaa !8
  call void @llvm.lifetime.start.p0(i64 288, ptr %16) #11
  call void @llvm.lifetime.start.p0(i64 288, ptr %17) #11
  call void @llvm.lifetime.start.p0(i64 8, ptr %18) #11
  call void @llvm.lifetime.start.p0(i64 8, ptr %19) #11
  call void @llvm.lifetime.start.p0(i64 4, ptr %20) #11
  %22 = load ptr, ptr %15, align 8, !tbaa !8
  %23 = icmp eq ptr %22, null
  br i1 %23, label %29, label %24

24:                                               ; preds = %7
  %25 = load ptr, ptr %15, align 8, !tbaa !8
  %26 = load i32, ptr %25, align 4, !tbaa !9
  %27 = call noundef signext i8 @_ZL9U_FAILURE10UErrorCode(i32 noundef %26)
  %28 = icmp ne i8 %27, 0
  br i1 %28, label %29, label %30

29:                                               ; preds = %24, %7
  store i32 0, ptr %8, align 4
  store i32 1, ptr %21, align 4
  br label %94

30:                                               ; preds = %24
  %31 = load ptr, ptr %13, align 8, !tbaa !3
  %32 = icmp eq ptr %31, null
  br i1 %32, label %45, label %33

33:                                               ; preds = %30
  %34 = load i32, ptr %14, align 4, !tbaa !15
  %35 = icmp slt i32 %34, -1
  br i1 %35, label %45, label %36

36:                                               ; preds = %33
  %37 = load i32, ptr %12, align 4, !tbaa !15
  %38 = icmp slt i32 %37, 0
  br i1 %38, label %45, label %39

39:                                               ; preds = %36
  %40 = load i32, ptr %12, align 4, !tbaa !15
  %41 = icmp sgt i32 %40, 0
  br i1 %41, label %42, label %47

42:                                               ; preds = %39
  %43 = load ptr, ptr %11, align 8, !tbaa !3
  %44 = icmp eq ptr %43, null
  br i1 %44, label %45, label %47

45:                                               ; preds = %42, %36, %33, %30
  %46 = load ptr, ptr %15, align 8, !tbaa !8
  store i32 1, ptr %46, align 4, !tbaa !9
  store i32 0, ptr %8, align 4
  store i32 1, ptr %21, align 4
  br label %94

47:                                               ; preds = %42, %39
  %48 = load i32, ptr %14, align 4, !tbaa !15
  %49 = icmp eq i32 %48, 0
  br i1 %49, label %58, label %50

50:                                               ; preds = %47
  %51 = load i32, ptr %14, align 4, !tbaa !15
  %52 = icmp slt i32 %51, 0
  br i1 %52, label %53, label %63

53:                                               ; preds = %50
  %54 = load ptr, ptr %13, align 8, !tbaa !3
  %55 = load i8, ptr %54, align 1, !tbaa !19
  %56 = sext i8 %55 to i32
  %57 = icmp eq i32 %56, 0
  br i1 %57, label %58, label %63

58:                                               ; preds = %53, %47
  %59 = load ptr, ptr %11, align 8, !tbaa !3
  %60 = load i32, ptr %12, align 4, !tbaa !15
  %61 = load ptr, ptr %15, align 8, !tbaa !8
  %62 = call i32 @u_terminateChars_77(ptr noundef %59, i32 noundef %60, i32 noundef 0, ptr noundef %61)
  store i32 %62, ptr %8, align 4
  store i32 1, ptr %21, align 4
  br label %94

63:                                               ; preds = %53, %50
  %64 = load ptr, ptr %10, align 8, !tbaa !3
  %65 = load ptr, ptr %15, align 8, !tbaa !8
  %66 = call ptr @ucnv_createConverter_77(ptr noundef %16, ptr noundef %64, ptr noundef %65)
  store ptr %66, ptr %18, align 8, !tbaa !11
  %67 = load ptr, ptr %15, align 8, !tbaa !8
  %68 = load i32, ptr %67, align 4, !tbaa !9
  %69 = call noundef signext i8 @_ZL9U_FAILURE10UErrorCode(i32 noundef %68)
  %70 = icmp ne i8 %69, 0
  br i1 %70, label %71, label %72

71:                                               ; preds = %63
  store i32 0, ptr %8, align 4
  store i32 1, ptr %21, align 4
  br label %94

72:                                               ; preds = %63
  %73 = load ptr, ptr %9, align 8, !tbaa !3
  %74 = load ptr, ptr %15, align 8, !tbaa !8
  %75 = call ptr @ucnv_createConverter_77(ptr noundef %17, ptr noundef %73, ptr noundef %74)
  store ptr %75, ptr %19, align 8, !tbaa !11
  %76 = load ptr, ptr %15, align 8, !tbaa !8
  %77 = load i32, ptr %76, align 4, !tbaa !9
  %78 = call noundef signext i8 @_ZL9U_FAILURE10UErrorCode(i32 noundef %77)
  %79 = icmp ne i8 %78, 0
  br i1 %79, label %80, label %82

80:                                               ; preds = %72
  %81 = load ptr, ptr %18, align 8, !tbaa !11
  call void @ucnv_close_77(ptr noundef %81)
  store i32 0, ptr %8, align 4
  store i32 1, ptr %21, align 4
  br label %94

82:                                               ; preds = %72
  %83 = load ptr, ptr %19, align 8, !tbaa !11
  %84 = load ptr, ptr %18, align 8, !tbaa !11
  %85 = load ptr, ptr %11, align 8, !tbaa !3
  %86 = load i32, ptr %12, align 4, !tbaa !15
  %87 = load ptr, ptr %13, align 8, !tbaa !3
  %88 = load i32, ptr %14, align 4, !tbaa !15
  %89 = load ptr, ptr %15, align 8, !tbaa !8
  %90 = call noundef i32 @_ZL20ucnv_internalConvertP10UConverterS0_PciPKciP10UErrorCode(ptr noundef %83, ptr noundef %84, ptr noundef %85, i32 noundef %86, ptr noundef %87, i32 noundef %88, ptr noundef %89)
  store i32 %90, ptr %20, align 4, !tbaa !15
  %91 = load ptr, ptr %18, align 8, !tbaa !11
  call void @ucnv_close_77(ptr noundef %91)
  %92 = load ptr, ptr %19, align 8, !tbaa !11
  call void @ucnv_close_77(ptr noundef %92)
  %93 = load i32, ptr %20, align 4, !tbaa !15
  store i32 %93, ptr %8, align 4
  store i32 1, ptr %21, align 4
  br label %94

94:                                               ; preds = %82, %80, %71, %58, %45, %29
  call void @llvm.lifetime.end.p0(i64 4, ptr %20) #11
  call void @llvm.lifetime.end.p0(i64 8, ptr %19) #11
  call void @llvm.lifetime.end.p0(i64 8, ptr %18) #11
  call void @llvm.lifetime.end.p0(i64 288, ptr %17) #11
  call void @llvm.lifetime.end.p0(i64 288, ptr %16) #11
  %95 = load i32, ptr %8, align 4
  ret i32 %95
}