; Function Attrs: mustprogress uwtable
define i32 @ucnv_convert_77(ptr noundef %0, ptr noundef %1, ptr noundef %2, i32 noundef %3, ptr noundef %4, i32 noundef %5, ptr noundef %6) local_unnamed_addr #0 {
  %8 = alloca %struct.UConverter, align 8
  %9 = alloca %struct.UConverter, align 8
  call void @llvm.lifetime.start.p0(i64 288, ptr nonnull %8) #16
  call void @llvm.lifetime.start.p0(i64 288, ptr nonnull %9) #16
  %10 = icmp eq ptr %6, null
  br i1 %10, label %42, label %11

11:                                               ; preds = %7
  %12 = load i32, ptr %6, align 4, !tbaa !3
  %13 = icmp slt i32 %12, 1
  br i1 %13, label %14, label %42

14:                                               ; preds = %11
  %15 = icmp eq ptr %4, null
  %16 = icmp slt i32 %5, -1
  %or.cond = or i1 %15, %16
  %17 = icmp slt i32 %3, 0
  %or.cond3 = or i1 %17, %or.cond
  br i1 %or.cond3, label %21, label %18

18:                                               ; preds = %14
  %19 = icmp ne i32 %3, 0
  %20 = icmp eq ptr %2, null
  %or.cond5 = and i1 %20, %19
  br i1 %or.cond5, label %21, label %22

21:                                               ; preds = %18, %14
  store i32 1, ptr %6, align 4, !tbaa !3
  br label %42

22:                                               ; preds = %18
  %23 = icmp eq i32 %5, 0
  br i1 %23, label %29, label %24

24:                                               ; preds = %22
  %25 = icmp slt i32 %5, 0
  br i1 %25, label %26, label %31

26:                                               ; preds = %24
  %27 = load i8, ptr %4, align 1, !tbaa !7
  %28 = icmp eq i8 %27, 0
  br i1 %28, label %29, label %31

29:                                               ; preds = %26, %22
  %30 = tail call i32 @u_terminateChars_77(ptr noundef %2, i32 noundef %3, i32 noundef 0, ptr noundef nonnull %6)
  br label %42

31:                                               ; preds = %26, %24
  %32 = call ptr @ucnv_createConverter_77(ptr noundef nonnull %8, ptr noundef %1, ptr noundef nonnull %6)
  %33 = load i32, ptr %6, align 4, !tbaa !3
  %34 = icmp slt i32 %33, 1
  br i1 %34, label %35, label %42

35:                                               ; preds = %31
  %36 = call ptr @ucnv_createConverter_77(ptr noundef nonnull %9, ptr noundef %0, ptr noundef nonnull %6)
  %37 = load i32, ptr %6, align 4, !tbaa !3
  %38 = icmp slt i32 %37, 1
  br i1 %38, label %40, label %39

39:                                               ; preds = %35
  call void @ucnv_close_77(ptr noundef %32)
  br label %42

40:                                               ; preds = %35
  %41 = call fastcc noundef i32 @_ZL20ucnv_internalConvertP10UConverterS0_PciPKciP10UErrorCode(ptr noundef %36, ptr noundef %32, ptr noundef %2, i32 noundef %3, ptr noundef %4, i32 noundef %5, ptr noundef %6)
  call void @ucnv_close_77(ptr noundef %32)
  call void @ucnv_close_77(ptr noundef %36)
  br label %42

42:                                               ; preds = %31, %7, %11, %40, %39, %29, %21
  %.0 = phi i32 [ 0, %21 ], [ %30, %29 ], [ 0, %39 ], [ %41, %40 ], [ 0, %11 ], [ 0, %7 ], [ 0, %31 ]
  call void @llvm.lifetime.end.p0(i64 288, ptr nonnull %9) #16
  call void @llvm.lifetime.end.p0(i64 288, ptr nonnull %8) #16
  ret i32 %.0
}